target datalayout = "e-m:e-p270:32:32-p271:32:32-p272:64:64-i64:64-i128:128-f80:128-n8:16:32:64-S128"
target triple = "x86_64-pc-linux-gnu"

%class.QString = type { ptr }
%class.QObject = type { ptr, %class.QScopedPointer }
%class.QScopedPointer = type { ptr }
%class.QualityMapperDialog = type { %class.QDockWidget, %"class.Ui::QualityMapperDialogClass", ptr, ptr, %class.QGraphicsScene, [3 x ptr], double, i8, i8, %class.QList, i32, ptr, ptr, ptr, %class.QGraphicsScene, ptr, [3 x %class.QList.22], ptr, %class.QString, %class.QList, %class.QList, i8, %class.QList.25, %class.QList, ptr, ptr }
%class.QDockWidget = type { %class.QWidget }
%class.QWidget = type { %class.QObject, %class.QPaintDevice, ptr }
%class.QPaintDevice = type { ptr, i16, ptr }
%"class.Ui::QualityMapperDialogClass" = type { %class.Ui_QualityMapperDialogClass }
%class.Ui_QualityMapperDialogClass = type { ptr, ptr, ptr, ptr, ptr, ptr, ptr, ptr, ptr, ptr, ptr, ptr, ptr, ptr, ptr, ptr, ptr, ptr, ptr, ptr, ptr, ptr, ptr, ptr, ptr, ptr, ptr, ptr, ptr, ptr, ptr, ptr, ptr, ptr, ptr, ptr, ptr, ptr, ptr, ptr, ptr, ptr, ptr, ptr, ptr, ptr, ptr, ptr, ptr, ptr, ptr, ptr, ptr, ptr, ptr, ptr, ptr, ptr, ptr, ptr, ptr, ptr, ptr, ptr, ptr, ptr, ptr, ptr }
%class.QGraphicsScene = type { %class.QObject }
%class.QList.22 = type { %union.anon.24 }
%union.anon.24 = type { %struct.QListData }
%struct.QListData = type { ptr }
%class.QList.25 = type { %union.anon.27 }
%union.anon.27 = type { %struct.QListData }
%class.QList = type { %union.anon }
%union.anon = type { %struct.QListData }

; Function Attrs: mustprogress uwtable
define void @_ZN19QualityMapperDialog21on_flipButton_clickedEv(ptr noundef nonnull align 8 dereferenceable(824) %0) #5 align 2 {
  %2 = alloca ptr, align 8
  store ptr %0, ptr %2, align 8
  %3 = load ptr, ptr %2, align 8
  %4 = getelementptr inbounds %class.QualityMapperDialog, ptr %3, i32 0, i32 12
  %5 = load ptr, ptr %4, align 8
  call void @_ZN16TransferFunction8flipRampEv(ptr noundef nonnull align 8 dereferenceable(16492) %5)
  call void @_ZN19QualityMapperDialog6initTFEv(ptr noundef nonnull align 8 dereferenceable(824) %3)
  call void @_ZN19QualityMapperDialog20drawTransferFunctionEv(ptr noundef nonnull align 8 dereferenceable(824) %3)
  %6 = getelementptr inbounds %class.QualityMapperDialog, ptr %3, i32 0, i32 1
  %7 = getelementptr inbounds %class.Ui_QualityMapperDialogClass, ptr %6, i32 0, i32 65
  %8 = load ptr, ptr %7, align 8
  %9 = call noundef zeroext i1 @_ZNK15QAbstractButton9isCheckedEv(ptr noundef nonnull align 8 dereferenceable(48) %8)
  br i1 %9, label %10, label %11

10:                                               ; preds = %1
  call void @_ZN19QualityMapperDialog22on_applyButton_clickedEv(ptr noundef nonnull align 8 dereferenceable(824) %3)
  br label %11

11:                                               ; preds = %10, %1
  ret void
}