; Function Attrs: mustprogress uwtable
define void @_ZN19QualityMapperDialog21on_flipButton_clickedEv(ptr noundef nonnull align 8 dereferenceable(824) %0) local_unnamed_addr #9 align 2 {
  %2 = getelementptr inbounds i8, ptr %0, i64 688
  %3 = load ptr, ptr %2, align 8
  tail call void @_ZN16TransferFunction8flipRampEv(ptr noundef nonnull align 8 dereferenceable(16492) %3)
  tail call void @_ZN19QualityMapperDialog6initTFEv(ptr noundef nonnull align 8 dereferenceable(824) %0)
  tail call void @_ZN19QualityMapperDialog20drawTransferFunctionEv(ptr noundef nonnull align 8 dereferenceable(824) %0)
  %4 = getelementptr inbounds i8, ptr %0, i64 568
  %5 = load ptr, ptr %4, align 8
  %6 = tail call noundef zeroext i1 @_ZNK15QAbstractButton9isCheckedEv(ptr noundef nonnull align 8 dereferenceable(48) %5)
  br i1 %6, label %7, label %8

7:                                                ; preds = %1
  tail call void @_ZN19QualityMapperDialog22on_applyButton_clickedEv(ptr noundef nonnull align 8 dereferenceable(824) %0)
  br label %8

8:                                                ; preds = %7, %1
  ret void
}